target datalayout = "e-m:e-p270:32:32-p271:32:32-p272:64:64-i64:64-i128:128-f80:128-n8:16:32:64-S128"
target triple = "x86_64-pc-linux-gnu"

%"class.llvm::Value" = type { i8, i8, i16, i32, ptr, ptr }
%"class.llvm::ilist_node_impl" = type { %"class.llvm::ilist_node_base" }
%"class.llvm::ilist_node_base" = type { %"class.llvm::ilist_detail::node_base_prevnext", %"class.llvm::ilist_detail::node_base_parent" }
%"class.llvm::ilist_detail::node_base_prevnext" = type { ptr, ptr }
%"class.llvm::ilist_detail::node_base_parent" = type { ptr }
%"class.llvm::Instruction" = type { %"class.llvm::User", %"class.llvm::ilist_node_with_parent", %"class.llvm::DebugLoc", i32, ptr }
%"class.llvm::User" = type { %"class.llvm::Value" }
%"class.llvm::ilist_node_with_parent" = type { %"class.llvm::ilist_node" }
%"class.llvm::ilist_node" = type { %"class.llvm::ilist_node_impl" }
%"class.llvm::DebugLoc" = type { %"class.llvm::TypedTrackingMDRef" }
%"class.llvm::TypedTrackingMDRef" = type { %"class.llvm::TrackingMDRef" }
%"class.llvm::TrackingMDRef" = type { ptr }
%"class.llvm::AttributeList" = type { ptr }
%"class.llvm::CallBase" = type { %"class.llvm::Instruction", %"class.llvm::AttributeList", ptr }
%"class.llvm::CallBrInst" = type <{ %"class.llvm::CallBase", i32, [4 x i8] }>

; Function Attrs: mustprogress nounwind uwtable
define linkonce_odr hidden noundef zeroext i8 @_ZN4llvm17bitfields_details10CompressorIhLj1ELb1EE6unpackEh(i8 noundef zeroext %0) #0 comdat align 2 {
  %2 = alloca i8, align 1
  store i8 %0, ptr %2, align 1
  %3 = load i8, ptr %2, align 1
  ret i8 %3
}

; Function Attrs: mustprogress nounwind uwtable
define linkonce_odr hidden noundef zeroext i8 @_ZN4llvm17bitfields_details4ImplINS_8Bitfield7ElementIbLj0ELj1ELb1EEEtE7extractEt(i16 noundef zeroext %0) #0 comdat align 2 {
  %2 = alloca i16, align 2
  %3 = alloca i16, align 2
  store i16 %0, ptr %2, align 2
  %4 = load i16, ptr %2, align 2
  %5 = zext i16 %4 to i32
  %6 = and i32 %5, 1
  %7 = ashr i32 %6, 0
  %8 = trunc i32 %7 to i16
  store i16 %8, ptr %3, align 2
  %9 = load i16, ptr %3, align 2
  %10 = trunc i16 %9 to i8
  %11 = call noundef zeroext i8 @_ZN4llvm17bitfields_details10CompressorIhLj1ELb1EE6unpackEh(i8 noundef zeroext %10)
  ret i8 %11
}

; Function Attrs: mustprogress nounwind uwtable
define linkonce_odr hidden noundef zeroext i16 @_ZNK4llvm5Value24getSubclassDataFromValueEv(ptr noundef nonnull align 8 dereferenceable(24) %0) #0 comdat align 2 {
  %2 = alloca ptr, align 8
  store ptr %0, ptr %2, align 8
  %3 = load ptr, ptr %2, align 8
  %4 = getelementptr inbounds nuw %"class.llvm::Value", ptr %3, i32 0, i32 2
  %5 = load i16, ptr %4, align 2
  ret i16 %5
}

; Function Attrs: mustprogress nounwind uwtable
define linkonce_odr hidden noundef zeroext i1 @_ZN4llvm8Bitfield3getINS0_7ElementIbLj0ELj1ELb1EEEtEENT_4TypeET0_(i16 noundef zeroext %0) #0 comdat align 2 {
  %2 = alloca i16, align 2
  store i16 %0, ptr %2, align 2
  %3 = load i16, ptr %2, align 2
  %4 = call noundef zeroext i8 @_ZN4llvm17bitfields_details4ImplINS_8Bitfield7ElementIbLj0ELj1ELb1EEEtE7extractEt(i16 noundef zeroext %3)
  %5 = icmp ne i8 %4, 0
  ret i1 %5
}

; Function Attrs: mustprogress nounwind uwtable
define linkonce_odr hidden noundef zeroext i16 @_ZNK4llvm11Instruction24getSubclassDataFromValueEv(ptr noundef nonnull align 8 dereferenceable(72) %0) #0 comdat align 2 {
  %2 = alloca ptr, align 8
  store ptr %0, ptr %2, align 8
  %3 = load ptr, ptr %2, align 8
  %4 = call noundef zeroext i16 @_ZNK4llvm5Value24getSubclassDataFromValueEv(ptr noundef nonnull align 8 dereferenceable(24) %3)
  ret i16 %4
}

; Function Attrs: mustprogress nounwind uwtable
define linkonce_odr hidden noundef i32 @_ZNK4llvm4User14getNumOperandsEv(ptr noundef nonnull align 8 dereferenceable(24) %0) #0 comdat align 2 {
  %2 = alloca ptr, align 8
  store ptr %0, ptr %2, align 8
  %3 = load ptr, ptr %2, align 8
  %4 = getelementptr inbounds nuw %"class.llvm::Value", ptr %3, i32 0, i32 3
  %5 = load i32, ptr %4, align 4
  %6 = and i32 %5, 134217727
  ret i32 %6
}

; Function Attrs: mustprogress nounwind uwtable
define linkonce_odr hidden noundef i32 @_ZN4llvm21VariadicOperandTraitsINS_10BranchInstEE8operandsEPKNS_4UserE(ptr noundef %0) #0 comdat align 2 {
  %2 = alloca ptr, align 8
  store ptr %0, ptr %2, align 8
  %3 = load ptr, ptr %2, align 8
  %4 = call noundef i32 @_ZNK4llvm4User14getNumOperandsEv(ptr noundef nonnull align 8 dereferenceable(24) %3)
  ret i32 %4
}

; Function Attrs: mustprogress nounwind uwtable
define linkonce_odr hidden noundef zeroext i1 @_ZNK4llvm11Instruction15getSubclassDataINS_8Bitfield7ElementIbLj0ELj1ELb1EEEEENT_4TypeEv(ptr noundef nonnull align 8 dereferenceable(72) %0) #0 comdat align 2 {
  %2 = alloca ptr, align 8
  store ptr %0, ptr %2, align 8
  %3 = load ptr, ptr %2, align 8
  %4 = call noundef zeroext i16 @_ZNK4llvm11Instruction24getSubclassDataFromValueEv(ptr noundef nonnull align 8 dereferenceable(72) %3)
  %5 = call noundef zeroext i1 @_ZN4llvm8Bitfield3getINS0_7ElementIbLj0ELj1ELb1EEEtEENT_4TypeET0_(i16 noundef zeroext %4)
  ret i1 %5
}

; Function Attrs: mustprogress nounwind uwtable
define linkonce_odr hidden noundef i32 @_ZN4llvm20HungoffOperandTraits8operandsEPKNS_4UserE(ptr noundef %0) #0 comdat align 2 {
  %2 = alloca ptr, align 8
  store ptr %0, ptr %2, align 8
  %3 = load ptr, ptr %2, align 8
  %4 = call noundef i32 @_ZNK4llvm4User14getNumOperandsEv(ptr noundef nonnull align 8 dereferenceable(24) %3)
  ret i32 %4
}

; Function Attrs: mustprogress nounwind uwtable
define linkonce_odr hidden noundef i32 @_ZNK4llvm10BranchInst14getNumOperandsEv(ptr noundef nonnull align 8 dereferenceable(72) %0) #0 comdat align 2 {
  %2 = alloca ptr, align 8
  store ptr %0, ptr %2, align 8
  %3 = load ptr, ptr %2, align 8
  %4 = call noundef i32 @_ZN4llvm21VariadicOperandTraitsINS_10BranchInstEE8operandsEPKNS_4UserE(ptr noundef %3)
  ret i32 %4
}

; Function Attrs: mustprogress nounwind uwtable
define linkonce_odr hidden noundef i32 @_ZNK4llvm10CallBrInst19getNumIndirectDestsEv(ptr noundef nonnull align 8 dereferenceable(92) %0) #0 comdat align 2 {
  %2 = alloca ptr, align 8
  store ptr %0, ptr %2, align 8
  %3 = load ptr, ptr %2, align 8
  %4 = getelementptr inbounds nuw %"class.llvm::CallBrInst", ptr %3, i32 0, i32 1
  %5 = load i32, ptr %4, align 8
  ret i32 %5
}

; Function Attrs: mustprogress nounwind uwtable
define linkonce_odr hidden noundef i32 @_ZNK4llvm15CatchSwitchInst14getNumOperandsEv(ptr noundef nonnull align 8 dereferenceable(76) %0) #0 comdat align 2 {
  %2 = alloca ptr, align 8
  store ptr %0, ptr %2, align 8
  %3 = load ptr, ptr %2, align 8
  %4 = call noundef i32 @_ZN4llvm20HungoffOperandTraits8operandsEPKNS_4UserE(ptr noundef %3)
  ret i32 %4
}

; Function Attrs: mustprogress nounwind uwtable
define linkonce_odr hidden noundef zeroext i1 @_ZNK4llvm17CleanupReturnInst13hasUnwindDestEv(ptr noundef nonnull align 8 dereferenceable(72) %0) #0 comdat align 2 {
  %2 = alloca ptr, align 8
  store ptr %0, ptr %2, align 8
  %3 = load ptr, ptr %2, align 8
  %4 = call noundef zeroext i1 @_ZNK4llvm11Instruction15getSubclassDataINS_8Bitfield7ElementIbLj0ELj1ELb1EEEEENT_4TypeEv(ptr noundef nonnull align 8 dereferenceable(72) %3)
  ret i1 %4
}

; Function Attrs: mustprogress nounwind uwtable
define linkonce_odr hidden noundef i32 @_ZNK4llvm14IndirectBrInst14getNumOperandsEv(ptr noundef nonnull align 8 dereferenceable(76) %0) #0 comdat align 2 {
  %2 = alloca ptr, align 8
  store ptr %0, ptr %2, align 8
  %3 = load ptr, ptr %2, align 8
  %4 = call noundef i32 @_ZN4llvm20HungoffOperandTraits8operandsEPKNS_4UserE(ptr noundef %3)
  ret i32 %4
}

; Function Attrs: mustprogress nounwind uwtable
define linkonce_odr hidden noundef i32 @_ZNK4llvm10SwitchInst14getNumOperandsEv(ptr noundef nonnull align 8 dereferenceable(76) %0) #0 comdat align 2 {
  %2 = alloca ptr, align 8
  store ptr %0, ptr %2, align 8
  %3 = load ptr, ptr %2, align 8
  %4 = call noundef i32 @_ZN4llvm20HungoffOperandTraits8operandsEPKNS_4UserE(ptr noundef %3)
  ret i32 %4
}

; Function Attrs: mustprogress nounwind uwtable
define linkonce_odr hidden noundef zeroext i1 @_ZNK4llvm10BranchInst13isConditionalEv(ptr noundef nonnull align 8 dereferenceable(72) %0) #0 comdat align 2 {
  %2 = alloca ptr, align 8
  store ptr %0, ptr %2, align 8
  %3 = load ptr, ptr %2, align 8
  %4 = call noundef i32 @_ZNK4llvm10BranchInst14getNumOperandsEv(ptr noundef nonnull align 8 dereferenceable(72) %3)
  %5 = icmp eq i32 %4, 3
  ret i1 %5
}

; Function Attrs: mustprogress nounwind uwtable
define linkonce_odr hidden noundef i32 @_ZNK4llvm5Value10getValueIDEv(ptr noundef nonnull align 8 dereferenceable(24) %0) #0 comdat align 2 {
  %2 = alloca ptr, align 8
  store ptr %0, ptr %2, align 8
  %3 = load ptr, ptr %2, align 8
  %4 = getelementptr inbounds nuw %"class.llvm::Value", ptr %3, i32 0, i32 0
  %5 = load i8, ptr %4, align 8
  %6 = zext i8 %5 to i32
  ret i32 %6
}

; Function Attrs: mustprogress nounwind uwtable
define linkonce_odr hidden noundef i32 @_ZNK4llvm10CallBrInst16getNumSuccessorsEv(ptr noundef nonnull align 8 dereferenceable(92) %0) #0 comdat align 2 {
  %2 = alloca ptr, align 8
  store ptr %0, ptr %2, align 8
  %3 = load ptr, ptr %2, align 8
  %4 = call noundef i32 @_ZNK4llvm10CallBrInst19getNumIndirectDestsEv(ptr noundef nonnull align 8 dereferenceable(92) %3)
  %5 = add i32 %4, 1
  ret i32 %5
}

; Function Attrs: mustprogress nounwind uwtable
define linkonce_odr hidden noundef i32 @_ZNK4llvm15CatchSwitchInst16getNumSuccessorsEv(ptr noundef nonnull align 8 dereferenceable(76) %0) #0 comdat align 2 {
  %2 = alloca ptr, align 8
  store ptr %0, ptr %2, align 8
  %3 = load ptr, ptr %2, align 8
  %4 = call noundef i32 @_ZNK4llvm15CatchSwitchInst14getNumOperandsEv(ptr noundef nonnull align 8 dereferenceable(76) %3)
  %5 = sub i32 %4, 1
  ret i32 %5
}

; Function Attrs: mustprogress nounwind uwtable
define linkonce_odr hidden noundef i32 @_ZNK4llvm15CatchReturnInst16getNumSuccessorsEv(ptr noundef nonnull align 8 dereferenceable(72) %0) #0 comdat align 2 {
  %2 = alloca ptr, align 8
  store ptr %0, ptr %2, align 8
  ret i32 1
}

; Function Attrs: mustprogress nounwind uwtable
define linkonce_odr hidden noundef i32 @_ZNK4llvm17CleanupReturnInst16getNumSuccessorsEv(ptr noundef nonnull align 8 dereferenceable(72) %0) #0 comdat align 2 {
  %2 = alloca ptr, align 8
  store ptr %0, ptr %2, align 8
  %3 = load ptr, ptr %2, align 8
  %4 = call noundef zeroext i1 @_ZNK4llvm17CleanupReturnInst13hasUnwindDestEv(ptr noundef nonnull align 8 dereferenceable(72) %3)
  %5 = select i1 %4, i32 1, i32 0
  ret i32 %5
}

; Function Attrs: mustprogress nounwind uwtable
define linkonce_odr hidden noundef i32 @_ZNK4llvm15UnreachableInst16getNumSuccessorsEv(ptr noundef nonnull align 8 dereferenceable(72) %0) #0 comdat align 2 {
  %2 = alloca ptr, align 8
  store ptr %0, ptr %2, align 8
  ret i32 0
}

; Function Attrs: mustprogress nounwind uwtable
define linkonce_odr hidden noundef i32 @_ZNK4llvm10ResumeInst16getNumSuccessorsEv(ptr noundef nonnull align 8 dereferenceable(72) %0) #0 comdat align 2 {
  %2 = alloca ptr, align 8
  store ptr %0, ptr %2, align 8
  ret i32 0
}

; Function Attrs: mustprogress nounwind uwtable
define linkonce_odr hidden noundef i32 @_ZNK4llvm10InvokeInst16getNumSuccessorsEv(ptr noundef nonnull align 8 dereferenceable(88) %0) #0 comdat align 2 {
  %2 = alloca ptr, align 8
  store ptr %0, ptr %2, align 8
  ret i32 2
}

; Function Attrs: mustprogress nounwind uwtable
define linkonce_odr hidden noundef i32 @_ZNK4llvm14IndirectBrInst16getNumSuccessorsEv(ptr noundef nonnull align 8 dereferenceable(76) %0) #0 comdat align 2 {
  %2 = alloca ptr, align 8
  store ptr %0, ptr %2, align 8
  %3 = load ptr, ptr %2, align 8
  %4 = call noundef i32 @_ZNK4llvm14IndirectBrInst14getNumOperandsEv(ptr noundef nonnull align 8 dereferenceable(76) %3)
  %5 = sub i32 %4, 1
  ret i32 %5
}

; Function Attrs: mustprogress nounwind uwtable
define linkonce_odr hidden noundef i32 @_ZNK4llvm10SwitchInst16getNumSuccessorsEv(ptr noundef nonnull align 8 dereferenceable(76) %0) #0 comdat align 2 {
  %2 = alloca ptr, align 8
  store ptr %0, ptr %2, align 8
  %3 = load ptr, ptr %2, align 8
  %4 = call noundef i32 @_ZNK4llvm10SwitchInst14getNumOperandsEv(ptr noundef nonnull align 8 dereferenceable(76) %3)
  %5 = udiv i32 %4, 2
  ret i32 %5
}

; Function Attrs: mustprogress nounwind uwtable
define linkonce_odr hidden noundef i32 @_ZNK4llvm10BranchInst16getNumSuccessorsEv(ptr noundef nonnull align 8 dereferenceable(72) %0) #0 comdat align 2 {
  %2 = alloca ptr, align 8
  store ptr %0, ptr %2, align 8
  %3 = load ptr, ptr %2, align 8
  %4 = call noundef zeroext i1 @_ZNK4llvm10BranchInst13isConditionalEv(ptr noundef nonnull align 8 dereferenceable(72) %3)
  %5 = zext i1 %4 to i32
  %6 = add nsw i32 1, %5
  ret i32 %6
}

; Function Attrs: mustprogress nounwind uwtable
define linkonce_odr hidden noundef i32 @_ZNK4llvm10ReturnInst16getNumSuccessorsEv(ptr noundef nonnull align 8 dereferenceable(72) %0) #0 comdat align 2 {
  %2 = alloca ptr, align 8
  store ptr %0, ptr %2, align 8
  ret i32 0
}

; Function Attrs: mustprogress nounwind uwtable
define linkonce_odr hidden noundef i32 @_ZNK4llvm11Instruction9getOpcodeEv(ptr noundef nonnull align 8 dereferenceable(72) %0) #0 comdat align 2 {
  %2 = alloca ptr, align 8
  store ptr %0, ptr %2, align 8
  %3 = load ptr, ptr %2, align 8
  %4 = call noundef i32 @_ZNK4llvm5Value10getValueIDEv(ptr noundef nonnull align 8 dereferenceable(24) %3)
  %5 = sub i32 %4, 29
  ret i32 %5
}

; Function Attrs: mustprogress nounwind willreturn memory(read) uwtable
define dso_local noundef i32 @_ZNK4llvm11Instruction16getNumSuccessorsEv(ptr noundef nonnull align 8 dereferenceable(72) %0) #4 align 2 {
  %2 = alloca i32, align 4
  %3 = alloca ptr, align 8
  store ptr %0, ptr %3, align 8
  %4 = load ptr, ptr %3, align 8
  %5 = call noundef i32 @_ZNK4llvm11Instruction9getOpcodeEv(ptr noundef nonnull align 8 dereferenceable(72) %4)
  switch i32 %5, label %28 [
    i32 1, label %6
    i32 2, label %8
    i32 3, label %10
    i32 4, label %12
    i32 5, label %14
    i32 6, label %16
    i32 7, label %18
    i32 8, label %20
    i32 9, label %22
    i32 10, label %24
    i32 11, label %26
  ]

6:                                                ; preds = %1
  %7 = call noundef i32 @_ZNK4llvm10ReturnInst16getNumSuccessorsEv(ptr noundef nonnull align 8 dereferenceable(72) %4)
  store i32 %7, ptr %2, align 4
  br label %30

8:                                                ; preds = %1
  %9 = call noundef i32 @_ZNK4llvm10BranchInst16getNumSuccessorsEv(ptr noundef nonnull align 8 dereferenceable(72) %4)
  store i32 %9, ptr %2, align 4
  br label %30

10:                                               ; preds = %1
  %11 = call noundef i32 @_ZNK4llvm10SwitchInst16getNumSuccessorsEv(ptr noundef nonnull align 8 dereferenceable(76) %4)
  store i32 %11, ptr %2, align 4
  br label %30

12:                                               ; preds = %1
  %13 = call noundef i32 @_ZNK4llvm14IndirectBrInst16getNumSuccessorsEv(ptr noundef nonnull align 8 dereferenceable(76) %4)
  store i32 %13, ptr %2, align 4
  br label %30

14:                                               ; preds = %1
  %15 = call noundef i32 @_ZNK4llvm10InvokeInst16getNumSuccessorsEv(ptr noundef nonnull align 8 dereferenceable(88) %4)
  store i32 %15, ptr %2, align 4
  br label %30

16:                                               ; preds = %1
  %17 = call noundef i32 @_ZNK4llvm10ResumeInst16getNumSuccessorsEv(ptr noundef nonnull align 8 dereferenceable(72) %4)
  store i32 %17, ptr %2, align 4
  br label %30

18:                                               ; preds = %1
  %19 = call noundef i32 @_ZNK4llvm15UnreachableInst16getNumSuccessorsEv(ptr noundef nonnull align 8 dereferenceable(72) %4)
  store i32 %19, ptr %2, align 4
  br label %30

20:                                               ; preds = %1
  %21 = call noundef i32 @_ZNK4llvm17CleanupReturnInst16getNumSuccessorsEv(ptr noundef nonnull align 8 dereferenceable(72) %4)
  store i32 %21, ptr %2, align 4
  br label %30

22:                                               ; preds = %1
  %23 = call noundef i32 @_ZNK4llvm15CatchReturnInst16getNumSuccessorsEv(ptr noundef nonnull align 8 dereferenceable(72) %4)
  store i32 %23, ptr %2, align 4
  br label %30

24:                                               ; preds = %1
  %25 = call noundef i32 @_ZNK4llvm15CatchSwitchInst16getNumSuccessorsEv(ptr noundef nonnull align 8 dereferenceable(76) %4)
  store i32 %25, ptr %2, align 4
  br label %30

26:                                               ; preds = %1
  %27 = call noundef i32 @_ZNK4llvm10CallBrInst16getNumSuccessorsEv(ptr noundef nonnull align 8 dereferenceable(92) %4)
  store i32 %27, ptr %2, align 4
  br label %30

28:                                               ; preds = %1
  br label %29

29:                                               ; preds = %28
  unreachable

30:                                               ; preds = %26, %24, %22, %20, %18, %16, %14, %12, %10, %8, %6
  %31 = load i32, ptr %2, align 4
  ret i32 %31
}