; Function Attrs: mustprogress nofree norecurse nosync nounwind willreturn memory(argmem: read) uwtable
define dso_local noundef i32 @_ZNK4llvm11Instruction16getNumSuccessorsEv(ptr nocapture noundef nonnull readonly align 8 dereferenceable(72) %0) local_unnamed_addr #7 align 2 {
  %2 = load i8, ptr %0, align 8
  switch i8 %2, label %35 [
    i8 30, label %36
    i8 31, label %3
    i8 32, label %9
    i8 33, label %14
    i8 34, label %19
    i8 35, label %36
    i8 36, label %36
    i8 37, label %20
    i8 38, label %25
    i8 39, label %26
    i8 40, label %31
  ]

3:                                                ; preds = %1
  %4 = getelementptr inbounds nuw i8, ptr %0, i64 4
  %5 = load i32, ptr %4, align 4
  %6 = and i32 %5, 134217727
  %7 = icmp eq i32 %6, 3
  %8 = select i1 %7, i32 2, i32 1
  br label %36

9:                                                ; preds = %1
  %10 = getelementptr inbounds nuw i8, ptr %0, i64 4
  %11 = load i32, ptr %10, align 4
  %12 = lshr i32 %11, 1
  %13 = and i32 %12, 67108863
  br label %36

14:                                               ; preds = %1
  %15 = getelementptr inbounds nuw i8, ptr %0, i64 4
  %16 = load i32, ptr %15, align 4
  %17 = and i32 %16, 134217727
  %18 = add nsw i32 %17, -1
  br label %36

19:                                               ; preds = %1
  br label %36

20:                                               ; preds = %1
  %21 = getelementptr inbounds nuw i8, ptr %0, i64 2
  %22 = load i16, ptr %21, align 2
  %23 = and i16 %22, 1
  %24 = zext nneg i16 %23 to i32
  br label %36

25:                                               ; preds = %1
  br label %36

26:                                               ; preds = %1
  %27 = getelementptr inbounds nuw i8, ptr %0, i64 4
  %28 = load i32, ptr %27, align 4
  %29 = and i32 %28, 134217727
  %30 = add nsw i32 %29, -1
  br label %36

31:                                               ; preds = %1
  %32 = getelementptr inbounds nuw i8, ptr %0, i64 88
  %33 = load i32, ptr %32, align 8
  %34 = add i32 %33, 1
  br label %36

35:                                               ; preds = %1
  unreachable

36:                                               ; preds = %1, %1, %1, %31, %26, %25, %20, %19, %14, %9, %3
  %.0 = phi i32 [ %34, %31 ], [ %30, %26 ], [ 1, %25 ], [ %24, %20 ], [ 2, %19 ], [ %18, %14 ], [ %13, %9 ], [ %8, %3 ], [ 0, %1 ], [ 0, %1 ], [ 0, %1 ]
  ret i32 %.0
}